target datalayout = "e-m:e-p270:32:32-p271:32:32-p272:64:64-i64:64-i128:128-f80:128-n8:16:32:64-S128"
target triple = "x86_64-pc-linux-gnu"

%struct.anon = type { i64, double, double, double }

@.str.27 = private unnamed_addr constant [19 x i8] c"N_VGetArrayPointer\00", align 1
@stderr = external global ptr, align 8
@.str.28 = private unnamed_addr constant [55 x i8] c"\0ASUNDIALS_ERROR: %s() failed - returned NULL pointer\0A\0A\00", align 1
@.str.29 = private unnamed_addr constant [48 x i8] c"\0ASUNDIALS_ERROR: %s() failed with retval = %d\0A\0A\00", align 1
@.str.30 = private unnamed_addr constant [53 x i8] c"\0AMEMORY_ERROR: %s() failed - returned NULL pointer\0A\0A\00", align 1

; Function Attrs: nounwind uwtable
define internal i32 @check_retval(ptr noundef %0, ptr noundef %1, i32 noundef %2) #0 {
  %4 = alloca i32, align 4
  %5 = alloca ptr, align 8
  %6 = alloca ptr, align 8
  %7 = alloca i32, align 4
  %8 = alloca ptr, align 8
  %9 = alloca i32, align 4
  store ptr %0, ptr %5, align 8, !tbaa !10
  store ptr %1, ptr %6, align 8, !tbaa !29
  store i32 %2, ptr %7, align 4, !tbaa !8
  call void @llvm.lifetime.start.p0(i64 8, ptr %8) #6
  %10 = load i32, ptr %7, align 4, !tbaa !8
  %11 = icmp eq i32 %10, 0
  br i1 %11, label %12, label %19

12:                                               ; preds = %3
  %13 = load ptr, ptr %5, align 8, !tbaa !10
  %14 = icmp eq ptr %13, null
  br i1 %14, label %15, label %19

15:                                               ; preds = %12
  %16 = load ptr, ptr @stderr, align 8, !tbaa !25
  %17 = load ptr, ptr %6, align 8, !tbaa !29
  %18 = call i32 (ptr, ptr, ...) @fprintf(ptr noundef %16, ptr noundef @.str.28, ptr noundef %17) #6
  store i32 1, ptr %4, align 4
  store i32 1, ptr %9, align 4
  br label %47

19:                                               ; preds = %12, %3
  %20 = load i32, ptr %7, align 4, !tbaa !8
  %21 = icmp eq i32 %20, 1
  br i1 %21, label %22, label %34

22:                                               ; preds = %19
  %23 = load ptr, ptr %5, align 8, !tbaa !10
  store ptr %23, ptr %8, align 8, !tbaa !31
  %24 = load ptr, ptr %8, align 8, !tbaa !31
  %25 = load i32, ptr %24, align 4, !tbaa !8
  %26 = icmp slt i32 %25, 0
  br i1 %26, label %27, label %33

27:                                               ; preds = %22
  %28 = load ptr, ptr @stderr, align 8, !tbaa !25
  %29 = load ptr, ptr %6, align 8, !tbaa !29
  %30 = load ptr, ptr %8, align 8, !tbaa !31
  %31 = load i32, ptr %30, align 4, !tbaa !8
  %32 = call i32 (ptr, ptr, ...) @fprintf(ptr noundef %28, ptr noundef @.str.29, ptr noundef %29, i32 noundef %31) #6
  store i32 1, ptr %4, align 4
  store i32 1, ptr %9, align 4
  br label %47

33:                                               ; preds = %22
  br label %45

34:                                               ; preds = %19
  %35 = load i32, ptr %7, align 4, !tbaa !8
  %36 = icmp eq i32 %35, 2
  br i1 %36, label %37, label %44

37:                                               ; preds = %34
  %38 = load ptr, ptr %5, align 8, !tbaa !10
  %39 = icmp eq ptr %38, null
  br i1 %39, label %40, label %44

40:                                               ; preds = %37
  %41 = load ptr, ptr @stderr, align 8, !tbaa !25
  %42 = load ptr, ptr %6, align 8, !tbaa !29
  %43 = call i32 (ptr, ptr, ...) @fprintf(ptr noundef %41, ptr noundef @.str.30, ptr noundef %42) #6
  store i32 1, ptr %4, align 4
  store i32 1, ptr %9, align 4
  br label %47

44:                                               ; preds = %37, %34
  br label %45

45:                                               ; preds = %44, %33
  br label %46

46:                                               ; preds = %45
  store i32 0, ptr %4, align 4
  store i32 1, ptr %9, align 4
  br label %47

47:                                               ; preds = %46, %40, %27, %15
  call void @llvm.lifetime.end.p0(i64 8, ptr %8) #6
  %48 = load i32, ptr %4, align 4
  ret i32 %48
}

; Function Attrs: nounwind uwtable
define internal i32 @fs(double noundef %0, ptr noundef %1, ptr noundef %2, ptr noundef %3) #0 {
  %5 = alloca i32, align 4
  %6 = alloca double, align 8
  %7 = alloca ptr, align 8
  %8 = alloca ptr, align 8
  %9 = alloca ptr, align 8
  %10 = alloca ptr, align 8
  %11 = alloca i64, align 8
  %12 = alloca double, align 8
  %13 = alloca double, align 8
  %14 = alloca ptr, align 8
  %15 = alloca ptr, align 8
  %16 = alloca double, align 8
  %17 = alloca double, align 8
  %18 = alloca i64, align 8
  %19 = alloca i32, align 4
  store double %0, ptr %6, align 8, !tbaa !4
  store ptr %1, ptr %7, align 8, !tbaa !14
  store ptr %2, ptr %8, align 8, !tbaa !14
  store ptr %3, ptr %9, align 8, !tbaa !10
  call void @llvm.lifetime.start.p0(i64 8, ptr %10) #6
  %20 = load ptr, ptr %9, align 8, !tbaa !10
  store ptr %20, ptr %10, align 8, !tbaa !10
  call void @llvm.lifetime.start.p0(i64 8, ptr %11) #6
  %21 = load ptr, ptr %10, align 8, !tbaa !10
  %22 = getelementptr inbounds nuw %struct.anon, ptr %21, i32 0, i32 0
  %23 = load i64, ptr %22, align 8, !tbaa !18
  store i64 %23, ptr %11, align 8, !tbaa !12
  call void @llvm.lifetime.start.p0(i64 8, ptr %12) #6
  %24 = load ptr, ptr %10, align 8, !tbaa !10
  %25 = getelementptr inbounds nuw %struct.anon, ptr %24, i32 0, i32 2
  %26 = load double, ptr %25, align 8, !tbaa !21
  store double %26, ptr %12, align 8, !tbaa !4
  call void @llvm.lifetime.start.p0(i64 8, ptr %13) #6
  %27 = load ptr, ptr %10, align 8, !tbaa !10
  %28 = getelementptr inbounds nuw %struct.anon, ptr %27, i32 0, i32 1
  %29 = load double, ptr %28, align 8, !tbaa !20
  store double %29, ptr %13, align 8, !tbaa !4
  call void @llvm.lifetime.start.p0(i64 8, ptr %14) #6
  store ptr null, ptr %14, align 8, !tbaa !27
  call void @llvm.lifetime.start.p0(i64 8, ptr %15) #6
  store ptr null, ptr %15, align 8, !tbaa !27
  call void @llvm.lifetime.start.p0(i64 8, ptr %16) #6
  call void @llvm.lifetime.start.p0(i64 8, ptr %17) #6
  call void @llvm.lifetime.start.p0(i64 8, ptr %18) #6
  %30 = load ptr, ptr %7, align 8, !tbaa !14
  %31 = call ptr @N_VGetArrayPointer(ptr noundef %30)
  store ptr %31, ptr %14, align 8, !tbaa !27
  %32 = load ptr, ptr %14, align 8, !tbaa !27
  %33 = call i32 @check_retval(ptr noundef %32, ptr noundef @.str.27, i32 noundef 0)
  %34 = icmp ne i32 %33, 0
  br i1 %34, label %35, label %36

35:                                               ; preds = %4
  store i32 1, ptr %5, align 4
  store i32 1, ptr %19, align 4
  br label %117

36:                                               ; preds = %4
  %37 = load ptr, ptr %8, align 8, !tbaa !14
  %38 = call ptr @N_VGetArrayPointer(ptr noundef %37)
  store ptr %38, ptr %15, align 8, !tbaa !27
  %39 = load ptr, ptr %15, align 8, !tbaa !27
  %40 = call i32 @check_retval(ptr noundef %39, ptr noundef @.str.27, i32 noundef 0)
  %41 = icmp ne i32 %40, 0
  br i1 %41, label %42, label %43

42:                                               ; preds = %36
  store i32 1, ptr %5, align 4
  store i32 1, ptr %19, align 4
  br label %117

43:                                               ; preds = %36
  %44 = load double, ptr %12, align 8, !tbaa !4
  %45 = load double, ptr %13, align 8, !tbaa !4
  %46 = fdiv double %44, %45
  %47 = load double, ptr %13, align 8, !tbaa !4
  %48 = fdiv double %46, %47
  store double %48, ptr %16, align 8, !tbaa !4
  %49 = load double, ptr %12, align 8, !tbaa !4
  %50 = fmul double 2.000000e+00, %49
  %51 = load double, ptr %13, align 8, !tbaa !4
  %52 = fdiv double %50, %51
  %53 = load double, ptr %13, align 8, !tbaa !4
  %54 = fdiv double %52, %53
  store double %54, ptr %17, align 8, !tbaa !4
  %55 = load double, ptr %17, align 8, !tbaa !4
  %56 = load ptr, ptr %14, align 8, !tbaa !27
  %57 = getelementptr inbounds double, ptr %56, i64 1
  %58 = load double, ptr %57, align 8, !tbaa !4
  %59 = load ptr, ptr %14, align 8, !tbaa !27
  %60 = getelementptr inbounds double, ptr %59, i64 0
  %61 = load double, ptr %60, align 8, !tbaa !4
  %62 = fsub double %58, %61
  %63 = fmul double %55, %62
  %64 = load ptr, ptr %15, align 8, !tbaa !27
  %65 = getelementptr inbounds double, ptr %64, i64 0
  store double %63, ptr %65, align 8, !tbaa !4
  store i64 1, ptr %18, align 8, !tbaa !12
  br label %66

66:                                               ; preds = %96, %43
  %67 = load i64, ptr %18, align 8, !tbaa !12
  %68 = load i64, ptr %11, align 8, !tbaa !12
  %69 = sub nsw i64 %68, 1
  %70 = icmp slt i64 %67, %69
  br i1 %70, label %71, label %99

71:                                               ; preds = %66
  %72 = load double, ptr %16, align 8, !tbaa !4
  %73 = load ptr, ptr %14, align 8, !tbaa !27
  %74 = load i64, ptr %18, align 8, !tbaa !12
  %75 = sub nsw i64 %74, 1
  %76 = getelementptr inbounds double, ptr %73, i64 %75
  %77 = load double, ptr %76, align 8, !tbaa !4
  %78 = load double, ptr %17, align 8, !tbaa !4
  %79 = load ptr, ptr %14, align 8, !tbaa !27
  %80 = load i64, ptr %18, align 8, !tbaa !12
  %81 = getelementptr inbounds double, ptr %79, i64 %80
  %82 = load double, ptr %81, align 8, !tbaa !4
  %83 = fmul double %78, %82
  %84 = fneg double %83
  %85 = call double @llvm.fmuladd.f64(double %72, double %77, double %84)
  %86 = load double, ptr %16, align 8, !tbaa !4
  %87 = load ptr, ptr %14, align 8, !tbaa !27
  %88 = load i64, ptr %18, align 8, !tbaa !12
  %89 = add nsw i64 %88, 1
  %90 = getelementptr inbounds double, ptr %87, i64 %89
  %91 = load double, ptr %90, align 8, !tbaa !4
  %92 = call double @llvm.fmuladd.f64(double %86, double %91, double %85)
  %93 = load ptr, ptr %15, align 8, !tbaa !27
  %94 = load i64, ptr %18, align 8, !tbaa !12
  %95 = getelementptr inbounds double, ptr %93, i64 %94
  store double %92, ptr %95, align 8, !tbaa !4
  br label %96

96:                                               ; preds = %71
  %97 = load i64, ptr %18, align 8, !tbaa !12
  %98 = add nsw i64 %97, 1
  store i64 %98, ptr %18, align 8, !tbaa !12
  br label %66

99:                                               ; preds = %66
  %100 = load double, ptr %17, align 8, !tbaa !4
  %101 = load ptr, ptr %14, align 8, !tbaa !27
  %102 = load i64, ptr %11, align 8, !tbaa !12
  %103 = sub nsw i64 %102, 2
  %104 = getelementptr inbounds double, ptr %101, i64 %103
  %105 = load double, ptr %104, align 8, !tbaa !4
  %106 = load ptr, ptr %14, align 8, !tbaa !27
  %107 = load i64, ptr %11, align 8, !tbaa !12
  %108 = sub nsw i64 %107, 1
  %109 = getelementptr inbounds double, ptr %106, i64 %108
  %110 = load double, ptr %109, align 8, !tbaa !4
  %111 = fsub double %105, %110
  %112 = fmul double %100, %111
  %113 = load ptr, ptr %15, align 8, !tbaa !27
  %114 = load i64, ptr %11, align 8, !tbaa !12
  %115 = sub nsw i64 %114, 1
  %116 = getelementptr inbounds double, ptr %113, i64 %115
  store double %112, ptr %116, align 8, !tbaa !4
  store i32 0, ptr %5, align 4
  store i32 1, ptr %19, align 4
  br label %117

117:                                              ; preds = %99, %42, %35
  call void @llvm.lifetime.end.p0(i64 8, ptr %18) #6
  call void @llvm.lifetime.end.p0(i64 8, ptr %17) #6
  call void @llvm.lifetime.end.p0(i64 8, ptr %16) #6
  call void @llvm.lifetime.end.p0(i64 8, ptr %15) #6
  call void @llvm.lifetime.end.p0(i64 8, ptr %14) #6
  call void @llvm.lifetime.end.p0(i64 8, ptr %13) #6
  call void @llvm.lifetime.end.p0(i64 8, ptr %12) #6
  call void @llvm.lifetime.end.p0(i64 8, ptr %11) #6
  call void @llvm.lifetime.end.p0(i64 8, ptr %10) #6
  %118 = load i32, ptr %5, align 4
  ret i32 %118
}