; Function Attrs: nounwind uwtable
define internal range(i32 0, 2) i32 @fs(double %0, ptr noundef %1, ptr noundef %2, ptr noundef readonly captures(none) %3) #0 {
  %5 = load i64, ptr %3, align 8, !tbaa !11
  %6 = getelementptr inbounds nuw i8, ptr %3, i64 16
  %7 = load double, ptr %6, align 8, !tbaa !16
  %8 = getelementptr inbounds nuw i8, ptr %3, i64 8
  %9 = load double, ptr %8, align 8, !tbaa !15
  %10 = tail call ptr @N_VGetArrayPointer(ptr noundef %1) #9
  %11 = icmp eq ptr %10, null
  br i1 %11, label %check_retval.exit, label %14

check_retval.exit:                                ; preds = %4
  %12 = load ptr, ptr @stderr, align 8, !tbaa !9
  %13 = tail call i32 (ptr, ptr, ...) @fprintf(ptr noundef %12, ptr noundef nonnull @.str.28, ptr noundef nonnull @.str.27) #10
  br label %52

14:                                               ; preds = %4
  %15 = tail call ptr @N_VGetArrayPointer(ptr noundef %2) #9
  %16 = icmp eq ptr %15, null
  br i1 %16, label %check_retval.exit43, label %19

check_retval.exit43:                              ; preds = %14
  %17 = load ptr, ptr @stderr, align 8, !tbaa !9
  %18 = tail call i32 (ptr, ptr, ...) @fprintf(ptr noundef %17, ptr noundef nonnull @.str.28, ptr noundef nonnull @.str.27) #10
  br label %52

19:                                               ; preds = %14
  %20 = fdiv double %7, %9
  %21 = fdiv double %20, %9
  %22 = fmul double %7, 2.000000e+00
  %23 = fdiv double %22, %9
  %24 = fdiv double %23, %9
  %25 = getelementptr inbounds nuw i8, ptr %10, i64 8
  %26 = load double, ptr %25, align 8, !tbaa !22
  %27 = load double, ptr %10, align 8, !tbaa !22
  %28 = fsub double %26, %27
  %29 = fmul double %24, %28
  store double %29, ptr %15, align 8, !tbaa !22
  %30 = add i64 %5, -1
  %31 = icmp sgt i64 %5, 2
  br i1 %31, label %.lr.ph, label %._crit_edge

.lr.ph:                                           ; preds = %19, %.lr.ph
  %.048 = phi i64 [ %39, %.lr.ph ], [ 1, %19 ]
  %32 = getelementptr double, ptr %10, i64 %.048
  %33 = getelementptr i8, ptr %32, i64 -8
  %34 = load double, ptr %33, align 8, !tbaa !22
  %35 = load double, ptr %32, align 8, !tbaa !22
  %36 = fneg double %35
  %37 = fmul double %24, %36
  %38 = tail call double @llvm.fmuladd.f64(double %21, double %34, double %37)
  %39 = add nuw nsw i64 %.048, 1
  %40 = getelementptr inbounds nuw double, ptr %10, i64 %39
  %41 = load double, ptr %40, align 8, !tbaa !22
  %42 = tail call double @llvm.fmuladd.f64(double %21, double %41, double %38)
  %43 = getelementptr inbounds nuw double, ptr %15, i64 %.048
  store double %42, ptr %43, align 8, !tbaa !22
  %exitcond.not = icmp eq i64 %39, %30
  br i1 %exitcond.not, label %._crit_edge, label %.lr.ph

._crit_edge:                                      ; preds = %.lr.ph, %19
  %44 = getelementptr double, ptr %10, i64 %5
  %45 = getelementptr i8, ptr %44, i64 -16
  %46 = load double, ptr %45, align 8, !tbaa !22
  %47 = getelementptr inbounds double, ptr %10, i64 %30
  %48 = load double, ptr %47, align 8, !tbaa !22
  %49 = fsub double %46, %48
  %50 = fmul double %24, %49
  %51 = getelementptr inbounds double, ptr %15, i64 %30
  store double %50, ptr %51, align 8, !tbaa !22
  br label %52

52:                                               ; preds = %check_retval.exit43, %check_retval.exit, %._crit_edge
  %.039 = phi i32 [ 0, %._crit_edge ], [ 1, %check_retval.exit ], [ 1, %check_retval.exit43 ]
  ret i32 %.039
}